target datalayout = "e-m:e-p270:32:32-p271:32:32-p272:64:64-i64:64-i128:128-f80:128-n8:16:32:64-S128"
target triple = "x86_64-pc-linux-gnu"

@.str.26 = private unnamed_addr constant [57 x i8] c"Expression width %d exceeds implementation limit of %d!\0A\00", align 1

; Function Attrs: mustprogress uwtable
define void @_ZN5Yosys3AST7AstNode15detectSignWidthERiRbPb(ptr noundef nonnull align 8 dereferenceable(284) %0, ptr noundef nonnull align 4 dereferenceable(4) %1, ptr noundef nonnull align 1 dereferenceable(1) %2, ptr noundef %3) #4 align 2 {
  %5 = alloca ptr, align 8
  %6 = alloca ptr, align 8
  %7 = alloca ptr, align 8
  %8 = alloca ptr, align 8
  %9 = alloca i32, align 4
  store ptr %0, ptr %5, align 8, !tbaa !6
  store ptr %1, ptr %6, align 8, !tbaa !70
  store ptr %2, ptr %7, align 8, !tbaa !72
  store ptr %3, ptr %8, align 8, !tbaa !72
  %10 = load ptr, ptr %5, align 8
  %11 = load ptr, ptr %6, align 8, !tbaa !70
  store i32 -1, ptr %11, align 4, !tbaa !11
  %12 = load ptr, ptr %7, align 8, !tbaa !72
  store i8 1, ptr %12, align 1, !tbaa !74
  %13 = load ptr, ptr %8, align 8, !tbaa !72
  %14 = icmp ne ptr %13, null
  br i1 %14, label %15, label %17

15:                                               ; preds = %4
  %16 = load ptr, ptr %8, align 8, !tbaa !72
  store i8 0, ptr %16, align 1, !tbaa !74
  br label %17

17:                                               ; preds = %15, %4
  %18 = load ptr, ptr %6, align 8, !tbaa !70
  %19 = load ptr, ptr %7, align 8, !tbaa !72
  %20 = load ptr, ptr %8, align 8, !tbaa !72
  call void @_ZN5Yosys3AST7AstNode21detectSignWidthWorkerERiRbPb(ptr noundef nonnull align 8 dereferenceable(284) %10, ptr noundef nonnull align 4 dereferenceable(4) %18, ptr noundef nonnull align 1 dereferenceable(1) %19, ptr noundef %20)
  call void @llvm.lifetime.start.p0(i64 4, ptr %9) #3
  store i32 16777216, ptr %9, align 4, !tbaa !11
  %21 = load ptr, ptr %6, align 8, !tbaa !70
  %22 = load i32, ptr %21, align 4, !tbaa !11
  %23 = icmp sge i32 %22, 16777216
  br i1 %23, label %24, label %27

24:                                               ; preds = %17
  %25 = load ptr, ptr %6, align 8, !tbaa !70
  %26 = load i32, ptr %25, align 4, !tbaa !11
  call void (ptr, ptr, ...) @_ZNK5Yosys3AST7AstNode11input_errorEPKcz(ptr noundef nonnull align 8 dereferenceable(284) %10, ptr noundef @.str.26, i32 noundef %26, i32 noundef 16777216) #24
  unreachable

27:                                               ; preds = %17
  call void @llvm.lifetime.end.p0(i64 4, ptr %9) #3
  ret void
}