; Function Attrs: mustprogress uwtable
define void @_ZN5Yosys3AST7AstNode15detectSignWidthERiRbPb(ptr noundef nonnull align 8 dereferenceable(284) %0, ptr noundef nonnull align 4 dereferenceable(4) initializes((0, 4)) %1, ptr noundef nonnull align 1 dereferenceable(1) initializes((0, 1)) %2, ptr noundef %3) local_unnamed_addr #3 align 2 {
  store i32 -1, ptr %1, align 4, !tbaa !59
  store i8 1, ptr %2, align 1, !tbaa !53
  %.not = icmp eq ptr %3, null
  br i1 %.not, label %.split, label %.split11

.split11:                                         ; preds = %4
  store i8 0, ptr %3, align 1, !tbaa !53
  br label %.split

.split:                                           ; preds = %4, %.split11
  %.sink = phi ptr [ %3, %.split11 ], [ null, %4 ]
  tail call void @_ZN5Yosys3AST7AstNode21detectSignWidthWorkerERiRbPb(ptr noundef nonnull align 8 dereferenceable(284) %0, ptr noundef nonnull align 4 dereferenceable(4) %1, ptr noundef nonnull align 1 dereferenceable(1) %2, ptr noundef %.sink)
  %5 = load i32, ptr %1, align 4, !tbaa !59
  %6 = icmp sgt i32 %5, 16777215
  br i1 %6, label %7, label %8

7:                                                ; preds = %.split
  tail call void (ptr, ptr, ...) @_ZNK5Yosys3AST7AstNode11input_errorEPKcz(ptr noundef nonnull align 8 dereferenceable(284) %0, ptr noundef nonnull @.str.26, i32 noundef %5, i32 noundef 16777216) #33
  unreachable

8:                                                ; preds = %.split
  ret void
}